; Function Attrs: nounwind uwtable
define ptr @l_Lean_RBMap_instRepr___rarg___boxed(ptr noundef %0, ptr noundef %1, ptr noundef %2, ptr noundef %3) #1 {
  %5 = load ptr, ptr @l_Lean_RBMap_toList___rarg___closed__1, align 8, !tbaa !10
  %6 = tail call ptr @l_Lean_RBNode_revFold___rarg(ptr noundef %5, ptr noundef nonnull inttoptr (i64 1 to ptr), ptr noundef %2)
  %7 = tail call ptr @l_List_repr___at_Lean_RBMap_instRepr___spec__1___rarg(ptr noundef %0, ptr noundef %1, ptr noundef %6, ptr nonnull poison)
  %8 = load ptr, ptr @l_Lean_RBMap_instRepr___rarg___closed__2, align 8, !tbaa !10
  tail call void @lean_inc_heartbeat() #9
  %9 = tail call noalias ptr @mi_malloc_small(i64 noundef 24) #9
  %10 = icmp eq ptr %9, null
  br i1 %10, label %11, label %l_Lean_RBMap_instRepr___rarg.exit

11:                                               ; preds = %4
  tail call void @lean_internal_panic_out_of_memory() #10
  unreachable

l_Lean_RBMap_instRepr___rarg.exit:                ; preds = %4
  %12 = getelementptr inbounds nuw i8, ptr %9, i64 4
  store i32 1, ptr %9, align 4, !tbaa !4
  store i32 84017176, ptr %12, align 4
  %13 = getelementptr inbounds nuw i8, ptr %9, i64 8
  store ptr %8, ptr %13, align 8, !tbaa !10
  %14 = getelementptr inbounds nuw i8, ptr %9, i64 16
  store ptr %7, ptr %14, align 8, !tbaa !10
  %15 = tail call ptr @l_Repr_addAppParen(ptr noundef nonnull %9, ptr noundef %3) #9
  %16 = ptrtoint ptr %3 to i64
  %17 = and i64 %16, 1
  %.not = icmp eq i64 %17, 0
  br i1 %.not, label %18, label %lean_dec.exit

18:                                               ; preds = %l_Lean_RBMap_instRepr___rarg.exit
  %19 = load i32, ptr %3, align 4, !tbaa !4
  %20 = icmp sgt i32 %19, 1
  br i1 %20, label %21, label %23, !prof !9

21:                                               ; preds = %18
  %22 = add nsw i32 %19, -1
  store i32 %22, ptr %3, align 4, !tbaa !4
  br label %lean_dec.exit

23:                                               ; preds = %18
  %.not.i = icmp eq i32 %19, 0
  br i1 %.not.i, label %lean_dec.exit, label %24

24:                                               ; preds = %23
  tail call void @lean_dec_ref_cold(ptr noundef nonnull %3) #9
  br label %lean_dec.exit

lean_dec.exit:                                    ; preds = %24, %23, %21, %l_Lean_RBMap_instRepr___rarg.exit
  ret ptr %15
}